target datalayout = "e-m:e-p270:32:32-p271:32:32-p272:64:64-i64:64-i128:128-f80:128-n8:16:32:64-S128"
target triple = "x86_64-pc-linux-gnu"

%struct.MPVEncContext = type { %struct.MpegEncContext, %struct.PutBitContext, i32, i32, ptr, i32, i32, i32, i32, i32, i32, i32, i32, ptr, ptr, %struct.FDCTDSPContext, %struct.MpegvideoEncDSPContext, %struct.PixblockDSPContext, %struct.MotionEstContext, i32, i32, ptr, ptr, ptr, ptr, ptr, ptr, [2 x [2 x [2 x ptr]]], [2 x ptr], [2 x [2 x ptr]], ptr, ptr, ptr, ptr, [3 x i64], i32, i32, i32, i32, i32, ptr, ptr, ptr, ptr, ptr, ptr, ptr, [12 x i32], ptr, ptr, ptr, ptr, ptr, ptr, ptr, ptr, [2 x i32], ptr, i32, i32, i32, i32, i32, i32, i32, i32, i32, i32, ptr, ptr, i32, i32, %struct.PutBitContext, %struct.PutBitContext, i32, i32, i32, i32, ptr, ptr, ptr, [2 x ptr], [2 x ptr], [2 x ptr], [2 x ptr], ptr, i32 }
%struct.MpegEncContext = type { ptr, i32, i32, i32, [12 x i32], i32, %struct.ScanTable, %struct.ScanTable, [64 x i8], [64 x i8], ptr, ptr, i32, i32, i32, i32, i32, i32, i32, i32, i32, i32, i32, i32, i32, i32, i32, i32, i32, i32, i32, i32, i64, i64, ptr, %struct.BufferPoolContext, i32, i32, %union.anon, i32, %struct.MPVWorkPicture, %struct.MPVWorkPicture, %struct.MPVWorkPicture, i32, [3 x i32], ptr, [3 x ptr], ptr, ptr, ptr, ptr, ptr, ptr, [3 x ptr], i32, ptr, ptr, ptr, ptr, %struct.ScratchpadContext, i32, i32, i32, i32, i32, i32, %struct.BlockDSPContext, %struct.H264ChromaContext, %struct.HpelDSPContext, %struct.IDCTDSPContext, %struct.QpelDSPContext, %struct.VideoDSPContext, %struct.H263DSPContext, ptr, [2 x [2 x ptr]], i32, i32, [2 x [4 x [2 x i32]]], [2 x [2 x i32]], [2 x [2 x [2 x i32]]], [2 x [64 x i16]], i32, i32, i32, i32, i32, [6 x i32], [6 x i32], [3 x ptr], ptr, [64 x i16], [64 x i16], [64 x i16], [64 x i16], i32, i32, %struct.GetBitContext, i32, i32, i32, i32, i32, i32, i32, i32, i32, i32, i32, i32, i32, i32, i32, i64, i64, i16, i16, i16, i16, i32, i32, i32, i32, i32, i32, i32, i32, i32, [3 x i32], i32, i32, i32, i32, i32, i32, %struct.GetBitContext, i32, [2 x [2 x i32]], i32, i32, i32, i32, i32, i32, i32, i32, i32, i32, i32, i32, i32, i32, [2 x i32], i32, i32, ptr, ptr, ptr, ptr, ptr, i32, i32, %struct.ERContext }
%struct.ScanTable = type { ptr, [64 x i8], [64 x i8] }
%struct.BufferPoolContext = type { ptr, ptr, ptr, ptr, ptr, i32, i32, i32 }
%union.anon = type { [32 x ptr] }
%struct.MPVWorkPicture = type { [3 x ptr], [3 x i64], ptr, ptr, [2 x ptr], ptr, ptr, [2 x ptr], i32 }
%struct.ScratchpadContext = type { ptr, ptr, %union.anon.0, i32 }
%union.anon.0 = type { ptr }
%struct.BlockDSPContext = type { ptr, ptr, [2 x ptr] }
%struct.H264ChromaContext = type { [4 x ptr], [4 x ptr] }
%struct.HpelDSPContext = type { [4 x [4 x ptr]], [4 x [4 x ptr]], [4 x [4 x ptr]], [4 x ptr] }
%struct.IDCTDSPContext = type { ptr, ptr, ptr, ptr, ptr, ptr, [64 x i8], i32, i32 }
%struct.QpelDSPContext = type { [2 x [16 x ptr]], [2 x [16 x ptr]], [2 x [16 x ptr]] }
%struct.VideoDSPContext = type { ptr, ptr }
%struct.H263DSPContext = type { ptr, ptr }
%struct.GetBitContext = type { ptr, ptr, i32, i32, i32 }
%struct.ERContext = type { ptr, ptr, i32, ptr, i32, i32, i32, i64, i64, i32, i32, ptr, ptr, [3 x ptr], ptr, ptr, [2 x [4 x [2 x i32]]], %struct.ERPicture, %struct.ERPicture, %struct.ERPicture, [2 x ptr], [2 x ptr], i16, i16, i32, i32, ptr, ptr }
%struct.ERPicture = type { ptr, ptr, ptr, [2 x ptr], [2 x ptr], ptr, i32 }
%struct.FDCTDSPContext = type { ptr, ptr }
%struct.MpegvideoEncDSPContext = type { ptr, ptr, ptr, ptr, [4 x ptr], ptr }
%struct.PixblockDSPContext = type { ptr, ptr, ptr, ptr }
%struct.MotionEstContext = type { ptr, i32, i32, [4 x [2 x i32]], [4 x [2 x i32]], ptr, ptr, i32, i32, i32, i32, i32, i32, i32, i32, i32, i32, i32, i32, i32, i32, i32, i32, [4 x [4 x ptr]], [4 x [4 x ptr]], i32, i32, i64, i64, i32, [6 x ptr], [6 x ptr], [6 x ptr], [6 x ptr], [2 x [4 x ptr]], ptr, ptr, ptr, ptr, ptr, ptr, ptr, ptr, [64 x i32], [64 x i32] }
%struct.PutBitContext = type { i32, i32, ptr, ptr, ptr }

; Function Attrs: nounwind uwtable
define void @ff_clean_mpeg4_qscales(ptr noundef %0) #0 {
  %2 = alloca ptr, align 8
  %3 = alloca ptr, align 8
  %4 = alloca i32, align 4
  %5 = alloca i32, align 4
  %6 = alloca i32, align 4
  %7 = alloca i32, align 4
  %8 = alloca i32, align 4
  %9 = alloca i32, align 4
  %10 = alloca i32, align 4
  store ptr %0, ptr %2, align 8, !tbaa !4
  call void @llvm.lifetime.start.p0(i64 8, ptr %3) #10
  %11 = load ptr, ptr %2, align 8, !tbaa !4
  %12 = getelementptr inbounds nuw %struct.MPVEncContext, ptr %11, i32 0, i32 0
  %13 = getelementptr inbounds nuw %struct.MpegEncContext, ptr %12, i32 0, i32 42
  %14 = getelementptr inbounds nuw %struct.MPVWorkPicture, ptr %13, i32 0, i32 3
  %15 = load ptr, ptr %14, align 8, !tbaa !9
  store ptr %15, ptr %3, align 8, !tbaa !47
  %16 = load ptr, ptr %2, align 8, !tbaa !4
  call void @ff_clean_h263_qscales(ptr noundef %16)
  %17 = load ptr, ptr %2, align 8, !tbaa !4
  %18 = getelementptr inbounds nuw %struct.MPVEncContext, ptr %17, i32 0, i32 0
  %19 = getelementptr inbounds nuw %struct.MpegEncContext, ptr %18, i32 0, i32 62
  %20 = load i32, ptr %19, align 8, !tbaa !48
  %21 = icmp eq i32 %20, 3
  br i1 %21, label %22, label %179

22:                                               ; preds = %1
  call void @llvm.lifetime.start.p0(i64 4, ptr %4) #10
  store i32 0, ptr %4, align 4, !tbaa !49
  call void @llvm.lifetime.start.p0(i64 4, ptr %5) #10
  store i32 0, ptr %5, align 4, !tbaa !49
  br label %23

23:                                               ; preds = %49, %22
  %24 = load i32, ptr %5, align 4, !tbaa !49
  %25 = load ptr, ptr %2, align 8, !tbaa !4
  %26 = getelementptr inbounds nuw %struct.MPVEncContext, ptr %25, i32 0, i32 0
  %27 = getelementptr inbounds nuw %struct.MpegEncContext, ptr %26, i32 0, i32 31
  %28 = load i32, ptr %27, align 4, !tbaa !50
  %29 = icmp slt i32 %24, %28
  br i1 %29, label %31, label %30

30:                                               ; preds = %23
  call void @llvm.lifetime.end.p0(i64 4, ptr %5) #10
  br label %52

31:                                               ; preds = %23
  call void @llvm.lifetime.start.p0(i64 4, ptr %6) #10
  %32 = load ptr, ptr %2, align 8, !tbaa !4
  %33 = getelementptr inbounds nuw %struct.MPVEncContext, ptr %32, i32 0, i32 0
  %34 = getelementptr inbounds nuw %struct.MpegEncContext, ptr %33, i32 0, i32 89
  %35 = load ptr, ptr %34, align 8, !tbaa !51
  %36 = load i32, ptr %5, align 4, !tbaa !49
  %37 = sext i32 %36 to i64
  %38 = getelementptr inbounds i32, ptr %35, i64 %37
  %39 = load i32, ptr %38, align 4, !tbaa !49
  store i32 %39, ptr %6, align 4, !tbaa !49
  %40 = load ptr, ptr %3, align 8, !tbaa !47
  %41 = load i32, ptr %6, align 4, !tbaa !49
  %42 = sext i32 %41 to i64
  %43 = getelementptr inbounds i8, ptr %40, i64 %42
  %44 = load i8, ptr %43, align 1, !tbaa !52
  %45 = sext i8 %44 to i32
  %46 = and i32 %45, 1
  %47 = load i32, ptr %4, align 4, !tbaa !49
  %48 = add nsw i32 %47, %46
  store i32 %48, ptr %4, align 4, !tbaa !49
  call void @llvm.lifetime.end.p0(i64 4, ptr %6) #10
  br label %49

49:                                               ; preds = %31
  %50 = load i32, ptr %5, align 4, !tbaa !49
  %51 = add nsw i32 %50, 1
  store i32 %51, ptr %5, align 4, !tbaa !49
  br label %23, !llvm.loop !53

52:                                               ; preds = %30
  %53 = load i32, ptr %4, align 4, !tbaa !49
  %54 = mul nsw i32 2, %53
  %55 = load ptr, ptr %2, align 8, !tbaa !4
  %56 = getelementptr inbounds nuw %struct.MPVEncContext, ptr %55, i32 0, i32 0
  %57 = getelementptr inbounds nuw %struct.MpegEncContext, ptr %56, i32 0, i32 31
  %58 = load i32, ptr %57, align 4, !tbaa !50
  %59 = icmp sgt i32 %54, %58
  br i1 %59, label %60, label %61

60:                                               ; preds = %52
  store i32 1, ptr %4, align 4, !tbaa !49
  br label %62

61:                                               ; preds = %52
  store i32 0, ptr %4, align 4, !tbaa !49
  br label %62

62:                                               ; preds = %61, %60
  call void @llvm.lifetime.start.p0(i64 4, ptr %7) #10
  store i32 0, ptr %7, align 4, !tbaa !49
  br label %63

63:                                               ; preds = %110, %62
  %64 = load i32, ptr %7, align 4, !tbaa !49
  %65 = load ptr, ptr %2, align 8, !tbaa !4
  %66 = getelementptr inbounds nuw %struct.MPVEncContext, ptr %65, i32 0, i32 0
  %67 = getelementptr inbounds nuw %struct.MpegEncContext, ptr %66, i32 0, i32 31
  %68 = load i32, ptr %67, align 4, !tbaa !50
  %69 = icmp slt i32 %64, %68
  br i1 %69, label %71, label %70

70:                                               ; preds = %63
  call void @llvm.lifetime.end.p0(i64 4, ptr %7) #10
  br label %113

71:                                               ; preds = %63
  call void @llvm.lifetime.start.p0(i64 4, ptr %8) #10
  %72 = load ptr, ptr %2, align 8, !tbaa !4
  %73 = getelementptr inbounds nuw %struct.MPVEncContext, ptr %72, i32 0, i32 0
  %74 = getelementptr inbounds nuw %struct.MpegEncContext, ptr %73, i32 0, i32 89
  %75 = load ptr, ptr %74, align 8, !tbaa !51
  %76 = load i32, ptr %7, align 4, !tbaa !49
  %77 = sext i32 %76 to i64
  %78 = getelementptr inbounds i32, ptr %75, i64 %77
  %79 = load i32, ptr %78, align 4, !tbaa !49
  store i32 %79, ptr %8, align 4, !tbaa !49
  %80 = load ptr, ptr %3, align 8, !tbaa !47
  %81 = load i32, ptr %8, align 4, !tbaa !49
  %82 = sext i32 %81 to i64
  %83 = getelementptr inbounds i8, ptr %80, i64 %82
  %84 = load i8, ptr %83, align 1, !tbaa !52
  %85 = sext i8 %84 to i32
  %86 = and i32 %85, 1
  %87 = load i32, ptr %4, align 4, !tbaa !49
  %88 = icmp ne i32 %86, %87
  br i1 %88, label %89, label %96

89:                                               ; preds = %71
  %90 = load ptr, ptr %3, align 8, !tbaa !47
  %91 = load i32, ptr %8, align 4, !tbaa !49
  %92 = sext i32 %91 to i64
  %93 = getelementptr inbounds i8, ptr %90, i64 %92
  %94 = load i8, ptr %93, align 1, !tbaa !52
  %95 = add i8 %94, 1
  store i8 %95, ptr %93, align 1, !tbaa !52
  br label %96

96:                                               ; preds = %89, %71
  %97 = load ptr, ptr %3, align 8, !tbaa !47
  %98 = load i32, ptr %8, align 4, !tbaa !49
  %99 = sext i32 %98 to i64
  %100 = getelementptr inbounds i8, ptr %97, i64 %99
  %101 = load i8, ptr %100, align 1, !tbaa !52
  %102 = sext i8 %101 to i32
  %103 = icmp sgt i32 %102, 31
  br i1 %103, label %104, label %109

104:                                              ; preds = %96
  %105 = load ptr, ptr %3, align 8, !tbaa !47
  %106 = load i32, ptr %8, align 4, !tbaa !49
  %107 = sext i32 %106 to i64
  %108 = getelementptr inbounds i8, ptr %105, i64 %107
  store i8 31, ptr %108, align 1, !tbaa !52
  br label %109

109:                                              ; preds = %104, %96
  call void @llvm.lifetime.end.p0(i64 4, ptr %8) #10
  br label %110

110:                                              ; preds = %109
  %111 = load i32, ptr %7, align 4, !tbaa !49
  %112 = add nsw i32 %111, 1
  store i32 %112, ptr %7, align 4, !tbaa !49
  br label %63, !llvm.loop !55

113:                                              ; preds = %70
  call void @llvm.lifetime.start.p0(i64 4, ptr %9) #10
  store i32 1, ptr %9, align 4, !tbaa !49
  br label %114

114:                                              ; preds = %175, %113
  %115 = load i32, ptr %9, align 4, !tbaa !49
  %116 = load ptr, ptr %2, align 8, !tbaa !4
  %117 = getelementptr inbounds nuw %struct.MPVEncContext, ptr %116, i32 0, i32 0
  %118 = getelementptr inbounds nuw %struct.MpegEncContext, ptr %117, i32 0, i32 31
  %119 = load i32, ptr %118, align 4, !tbaa !50
  %120 = icmp slt i32 %115, %119
  br i1 %120, label %122, label %121

121:                                              ; preds = %114
  call void @llvm.lifetime.end.p0(i64 4, ptr %9) #10
  br label %178

122:                                              ; preds = %114
  call void @llvm.lifetime.start.p0(i64 4, ptr %10) #10
  %123 = load ptr, ptr %2, align 8, !tbaa !4
  %124 = getelementptr inbounds nuw %struct.MPVEncContext, ptr %123, i32 0, i32 0
  %125 = getelementptr inbounds nuw %struct.MpegEncContext, ptr %124, i32 0, i32 89
  %126 = load ptr, ptr %125, align 8, !tbaa !51
  %127 = load i32, ptr %9, align 4, !tbaa !49
  %128 = sext i32 %127 to i64
  %129 = getelementptr inbounds i32, ptr %126, i64 %128
  %130 = load i32, ptr %129, align 4, !tbaa !49
  store i32 %130, ptr %10, align 4, !tbaa !49
  %131 = load ptr, ptr %3, align 8, !tbaa !47
  %132 = load i32, ptr %10, align 4, !tbaa !49
  %133 = sext i32 %132 to i64
  %134 = getelementptr inbounds i8, ptr %131, i64 %133
  %135 = load i8, ptr %134, align 1, !tbaa !52
  %136 = sext i8 %135 to i32
  %137 = load ptr, ptr %3, align 8, !tbaa !47
  %138 = load ptr, ptr %2, align 8, !tbaa !4
  %139 = getelementptr inbounds nuw %struct.MPVEncContext, ptr %138, i32 0, i32 0
  %140 = getelementptr inbounds nuw %struct.MpegEncContext, ptr %139, i32 0, i32 89
  %141 = load ptr, ptr %140, align 8, !tbaa !51
  %142 = load i32, ptr %9, align 4, !tbaa !49
  %143 = sub nsw i32 %142, 1
  %144 = sext i32 %143 to i64
  %145 = getelementptr inbounds i32, ptr %141, i64 %144
  %146 = load i32, ptr %145, align 4, !tbaa !49
  %147 = sext i32 %146 to i64
  %148 = getelementptr inbounds i8, ptr %137, i64 %147
  %149 = load i8, ptr %148, align 1, !tbaa !52
  %150 = sext i8 %149 to i32
  %151 = icmp ne i32 %136, %150
  br i1 %151, label %152, label %174

152:                                              ; preds = %122
  %153 = load ptr, ptr %2, align 8, !tbaa !4
  %154 = getelementptr inbounds nuw %struct.MPVEncContext, ptr %153, i32 0, i32 30
  %155 = load ptr, ptr %154, align 8, !tbaa !56
  %156 = load i32, ptr %10, align 4, !tbaa !49
  %157 = sext i32 %156 to i64
  %158 = getelementptr inbounds i16, ptr %155, i64 %157
  %159 = load i16, ptr %158, align 2, !tbaa !57
  %160 = zext i16 %159 to i32
  %161 = and i32 %160, 16
  %162 = icmp ne i32 %161, 0
  br i1 %162, label %163, label %174

163:                                              ; preds = %152
  %164 = load ptr, ptr %2, align 8, !tbaa !4
  %165 = getelementptr inbounds nuw %struct.MPVEncContext, ptr %164, i32 0, i32 30
  %166 = load ptr, ptr %165, align 8, !tbaa !56
  %167 = load i32, ptr %10, align 4, !tbaa !49
  %168 = sext i32 %167 to i64
  %169 = getelementptr inbounds i16, ptr %166, i64 %168
  %170 = load i16, ptr %169, align 2, !tbaa !57
  %171 = zext i16 %170 to i32
  %172 = or i32 %171, 128
  %173 = trunc i32 %172 to i16
  store i16 %173, ptr %169, align 2, !tbaa !57
  br label %174

174:                                              ; preds = %163, %152, %122
  call void @llvm.lifetime.end.p0(i64 4, ptr %10) #10
  br label %175

175:                                              ; preds = %174
  %176 = load i32, ptr %9, align 4, !tbaa !49
  %177 = add nsw i32 %176, 1
  store i32 %177, ptr %9, align 4, !tbaa !49
  br label %114, !llvm.loop !58

178:                                              ; preds = %121
  call void @llvm.lifetime.end.p0(i64 4, ptr %4) #10
  br label %179

179:                                              ; preds = %178, %1
  call void @llvm.lifetime.end.p0(i64 8, ptr %3) #10
  ret void
}