; Function Attrs: nounwind uwtable
define void @ff_clean_mpeg4_qscales(ptr noundef %0) local_unnamed_addr #0 {
  %2 = getelementptr inbounds nuw i8, ptr %0, i64 1216
  %3 = load ptr, ptr %2, align 8, !tbaa !4
  tail call void @ff_clean_h263_qscales(ptr noundef %0) #13
  %4 = getelementptr inbounds nuw i8, ptr %0, i64 1480
  %5 = load i32, ptr %4, align 8, !tbaa !45
  %6 = icmp eq i32 %5, 3
  br i1 %6, label %.preheader48, label %.loopexit

.preheader48:                                     ; preds = %1
  %7 = getelementptr inbounds nuw i8, ptr %0, i64 564
  %8 = load i32, ptr %7, align 4, !tbaa !46
  %9 = icmp sgt i32 %8, 0
  br i1 %9, label %.lr.ph, label %.loopexit

.lr.ph:                                           ; preds = %.preheader48
  %10 = getelementptr inbounds nuw i8, ptr %0, i64 3440
  %11 = load ptr, ptr %10, align 8, !tbaa !47
  %wide.trip.count = zext nneg i32 %8 to i64
  br label %15

.lr.ph56:                                         ; preds = %15
  %12 = shl nuw nsw i32 %23, 1
  %13 = getelementptr inbounds nuw i8, ptr %0, i64 3440
  %14 = icmp sle i32 %12, %8
  %invariant.op = xor i1 %14, true
  br label %28

15:                                               ; preds = %.lr.ph, %15
  %indvars.iv = phi i64 [ 0, %.lr.ph ], [ %indvars.iv.next, %15 ]
  %.052 = phi i32 [ 0, %.lr.ph ], [ %23, %15 ]
  %16 = getelementptr inbounds nuw i32, ptr %11, i64 %indvars.iv
  %17 = load i32, ptr %16, align 4, !tbaa !48
  %18 = sext i32 %17 to i64
  %19 = getelementptr inbounds i8, ptr %3, i64 %18
  %20 = load i8, ptr %19, align 1, !tbaa !49
  %21 = and i8 %20, 1
  %22 = zext nneg i8 %21 to i32
  %23 = add nuw nsw i32 %.052, %22
  %indvars.iv.next = add nuw nsw i64 %indvars.iv, 1
  %exitcond.not = icmp eq i64 %indvars.iv.next, %wide.trip.count
  br i1 %exitcond.not, label %.lr.ph56, label %15, !llvm.loop !50

.preheader:                                       ; preds = %41
  %24 = icmp sgt i32 %42, 1
  br i1 %24, label %.lr.ph59, label %.loopexit

.lr.ph59:                                         ; preds = %.preheader
  %25 = getelementptr inbounds nuw i8, ptr %0, i64 3440
  %26 = load ptr, ptr %25, align 8, !tbaa !47
  %27 = getelementptr inbounds nuw i8, ptr %0, i64 6472
  %wide.trip.count69 = zext nneg i32 %42 to i64
  br label %45

28:                                               ; preds = %.lr.ph56, %41
  %29 = phi i32 [ %8, %.lr.ph56 ], [ %42, %41 ]
  %indvars.iv63 = phi i64 [ 0, %.lr.ph56 ], [ %indvars.iv.next64, %41 ]
  %30 = load ptr, ptr %13, align 8, !tbaa !47
  %31 = getelementptr inbounds nuw i32, ptr %30, i64 %indvars.iv63
  %32 = load i32, ptr %31, align 4, !tbaa !48
  %33 = sext i32 %32 to i64
  %34 = getelementptr inbounds i8, ptr %3, i64 %33
  %35 = load i8, ptr %34, align 1, !tbaa !49
  %36 = trunc i8 %35 to i1
  %.not45 = xor i1 %14, %36
  %not..not45.reass.reass.reass = xor i1 %36, %invariant.op
  %37 = zext i1 %not..not45.reass.reass.reass to i8
  %38 = add i8 %35, %37
  %39 = icmp slt i8 %38, 32
  %.not47 = and i1 %.not45, %39
  br i1 %.not47, label %41, label %40

40:                                               ; preds = %28
  %simplifycfg.merge = tail call i8 @llvm.smin.i8(i8 %38, i8 31)
  store i8 %simplifycfg.merge, ptr %34, align 1, !tbaa !49
  %.pre = load i32, ptr %7, align 4, !tbaa !46
  br label %41

41:                                               ; preds = %28, %40
  %42 = phi i32 [ %29, %28 ], [ %.pre, %40 ]
  %indvars.iv.next64 = add nuw nsw i64 %indvars.iv63, 1
  %43 = sext i32 %42 to i64
  %44 = icmp slt i64 %indvars.iv.next64, %43
  br i1 %44, label %28, label %.preheader, !llvm.loop !52

45:                                               ; preds = %.lr.ph59, %63
  %indvars.iv66 = phi i64 [ 1, %.lr.ph59 ], [ %indvars.iv.next67, %63 ]
  %46 = getelementptr inbounds nuw i32, ptr %26, i64 %indvars.iv66
  %47 = load i32, ptr %46, align 4, !tbaa !48
  %48 = sext i32 %47 to i64
  %49 = getelementptr inbounds i8, ptr %3, i64 %48
  %50 = load i8, ptr %49, align 1, !tbaa !49
  %51 = getelementptr i8, ptr %46, i64 -4
  %52 = load i32, ptr %51, align 4, !tbaa !48
  %53 = sext i32 %52 to i64
  %54 = getelementptr inbounds i8, ptr %3, i64 %53
  %55 = load i8, ptr %54, align 1, !tbaa !49
  %.not = icmp eq i8 %50, %55
  br i1 %.not, label %63, label %56

56:                                               ; preds = %45
  %57 = load ptr, ptr %27, align 8, !tbaa !53
  %58 = getelementptr inbounds i16, ptr %57, i64 %48
  %59 = load i16, ptr %58, align 2, !tbaa !54
  %60 = and i16 %59, 16
  %.not44 = icmp eq i16 %60, 0
  br i1 %.not44, label %63, label %61

61:                                               ; preds = %56
  %62 = or i16 %59, 128
  store i16 %62, ptr %58, align 2, !tbaa !54
  br label %63

63:                                               ; preds = %61, %56, %45
  %indvars.iv.next67 = add nuw nsw i64 %indvars.iv66, 1
  %exitcond70.not = icmp eq i64 %indvars.iv.next67, %wide.trip.count69
  br i1 %exitcond70.not, label %.loopexit, label %45, !llvm.loop !55

.loopexit:                                        ; preds = %63, %.preheader48, %.preheader, %1
  ret void
}